
startup.o:     file format elf32-littlearm

Sections:
Idx Name          Size      VMA       LMA       File off  Algn
  0 .text         000000bc  00000000  00000000  00000034  2**2
                  CONTENTS, ALLOC, LOAD, RELOC, READONLY, CODE
  1 .data         00000000  00000000  00000000  000000f0  2**0
                  CONTENTS, ALLOC, LOAD, DATA
  2 .bss          00000400  00000000  00000000  000000f0  2**2
                  ALLOC
  3 .vectors      0000001c  00000000  00000000  000000f0  2**2
                  CONTENTS, ALLOC, LOAD, RELOC, READONLY, DATA
  4 .debug_info   000001a7  00000000  00000000  0000010c  2**0
                  CONTENTS, RELOC, READONLY, DEBUGGING
  5 .debug_abbrev 000000dc  00000000  00000000  000002b3  2**0
                  CONTENTS, READONLY, DEBUGGING
  6 .debug_loc    00000064  00000000  00000000  0000038f  2**0
                  CONTENTS, READONLY, DEBUGGING
  7 .debug_aranges 00000020  00000000  00000000  000003f3  2**0
                  CONTENTS, RELOC, READONLY, DEBUGGING
  8 .debug_line   00000069  00000000  00000000  00000413  2**0
                  CONTENTS, RELOC, READONLY, DEBUGGING
  9 .debug_str    00000137  00000000  00000000  0000047c  2**0
                  CONTENTS, READONLY, DEBUGGING
 10 .comment      00000012  00000000  00000000  000005b3  2**0
                  CONTENTS, READONLY
 11 .ARM.attributes 00000033  00000000  00000000  000005c5  2**0
                  CONTENTS, READONLY
 12 .debug_frame  0000004c  00000000  00000000  000005f8  2**2
                  CONTENTS, RELOC, READONLY, DEBUGGING

Disassembly of section .text:

00000000 <Default_Handler>:
   0:	b580      	push	{r7, lr}
   2:	af00      	add	r7, sp, #0
   4:	f7ff fffe 	bl	c <Rest_Handler>
   8:	bd80      	pop	{r7, pc}
   a:	bf00      	nop

0000000c <Rest_Handler>:
   c:	b580      	push	{r7, lr}
   e:	b086      	sub	sp, #24
  10:	af00      	add	r7, sp, #0
  12:	f240 0200 	movw	r2, #0
  16:	f2c0 0200 	movt	r2, #0
  1a:	f240 0300 	movw	r3, #0
  1e:	f2c0 0300 	movt	r3, #0
  22:	1ad3      	subs	r3, r2, r3
  24:	607b      	str	r3, [r7, #4]
  26:	f240 0300 	movw	r3, #0
  2a:	f2c0 0300 	movt	r3, #0
  2e:	617b      	str	r3, [r7, #20]
  30:	f240 0300 	movw	r3, #0
  34:	f2c0 0300 	movt	r3, #0
  38:	613b      	str	r3, [r7, #16]
  3a:	f04f 0300 	mov.w	r3, #0
  3e:	60fb      	str	r3, [r7, #12]
  40:	e00f      	b.n	62 <Rest_Handler+0x56>
  42:	697b      	ldr	r3, [r7, #20]
  44:	781a      	ldrb	r2, [r3, #0]
  46:	693b      	ldr	r3, [r7, #16]
  48:	701a      	strb	r2, [r3, #0]
  4a:	693b      	ldr	r3, [r7, #16]
  4c:	f103 0301 	add.w	r3, r3, #1
  50:	613b      	str	r3, [r7, #16]
  52:	697b      	ldr	r3, [r7, #20]
  54:	f103 0301 	add.w	r3, r3, #1
  58:	617b      	str	r3, [r7, #20]
  5a:	68fb      	ldr	r3, [r7, #12]
  5c:	f103 0301 	add.w	r3, r3, #1
  60:	60fb      	str	r3, [r7, #12]
  62:	68fa      	ldr	r2, [r7, #12]
  64:	687b      	ldr	r3, [r7, #4]
  66:	429a      	cmp	r2, r3
  68:	d3eb      	bcc.n	42 <Rest_Handler+0x36>
  6a:	f240 0200 	movw	r2, #0
  6e:	f2c0 0200 	movt	r2, #0
  72:	f240 0300 	movw	r3, #0
  76:	f2c0 0300 	movt	r3, #0
  7a:	1ad3      	subs	r3, r2, r3
  7c:	603b      	str	r3, [r7, #0]
  7e:	f240 0300 	movw	r3, #0
  82:	f2c0 0300 	movt	r3, #0
  86:	613b      	str	r3, [r7, #16]
  88:	f04f 0300 	mov.w	r3, #0
  8c:	60bb      	str	r3, [r7, #8]
  8e:	e00b      	b.n	a8 <Rest_Handler+0x9c>
  90:	693b      	ldr	r3, [r7, #16]
  92:	f04f 0200 	mov.w	r2, #0
  96:	701a      	strb	r2, [r3, #0]
  98:	693b      	ldr	r3, [r7, #16]
  9a:	f103 0301 	add.w	r3, r3, #1
  9e:	613b      	str	r3, [r7, #16]
  a0:	68bb      	ldr	r3, [r7, #8]
  a2:	f103 0301 	add.w	r3, r3, #1
  a6:	60bb      	str	r3, [r7, #8]
  a8:	68ba      	ldr	r2, [r7, #8]
  aa:	683b      	ldr	r3, [r7, #0]
  ac:	429a      	cmp	r2, r3
  ae:	d3ef      	bcc.n	90 <Rest_Handler+0x84>
  b0:	f7ff fffe 	bl	0 <main>
  b4:	f107 0718 	add.w	r7, r7, #24
  b8:	46bd      	mov	sp, r7
  ba:	bd80      	pop	{r7, pc}

Disassembly of section .vectors:

00000000 <g_p_fn_Vectors>:
   0:	00000400 	andeq	r0, r0, r0, lsl #8
	...
