
unit3_lab4_cortexM4.elf:     file format elf32-littlearm

Sections:
Idx Name          Size      VMA       LMA       File off  Algn
  0 .text         000001a0  00000000  00000000  00008000  2**2
                  CONTENTS, ALLOC, LOAD, READONLY, CODE
  1 .bss          00000400  20000000  000001a0  00010000  2**2
                  ALLOC
  2 .debug_info   0000024b  00000000  00000000  000081a0  2**0
                  CONTENTS, READONLY, DEBUGGING
  3 .debug_abbrev 00000136  00000000  00000000  000083eb  2**0
                  CONTENTS, READONLY, DEBUGGING
  4 .debug_loc    0000009c  00000000  00000000  00008521  2**0
                  CONTENTS, READONLY, DEBUGGING
  5 .debug_aranges 00000040  00000000  00000000  000085bd  2**0
                  CONTENTS, READONLY, DEBUGGING
  6 .debug_line   000000cc  00000000  00000000  000085fd  2**0
                  CONTENTS, READONLY, DEBUGGING
  7 .debug_str    00000128  00000000  00000000  000086c9  2**0
                  CONTENTS, READONLY, DEBUGGING
  8 .comment      00000011  00000000  00000000  000087f1  2**0
                  CONTENTS, READONLY
  9 .ARM.attributes 00000033  00000000  00000000  00008802  2**0
                  CONTENTS, READONLY
 10 .debug_frame  00000078  00000000  00000000  00008838  2**2
                  CONTENTS, READONLY, DEBUGGING

Disassembly of section .text:

00000000 <g_p_fn_Vectors>:
   0:	20000400 	andcs	r0, r0, r0, lsl #8
   4:	000000f1 	strdeq	r0, [r0], -r1
   8:	000000e5 	andeq	r0, r0, r5, ror #1
   c:	000000e5 	andeq	r0, r0, r5, ror #1
  10:	000000e5 	andeq	r0, r0, r5, ror #1
  14:	000000e5 	andeq	r0, r0, r5, ror #1
  18:	000000e5 	andeq	r0, r0, r5, ror #1

0000001c <main>:
  1c:	b480      	push	{r7}
  1e:	b083      	sub	sp, #12
  20:	af00      	add	r7, sp, #0
  22:	f24e 1308 	movw	r3, #57608	; 0xe108
  26:	f2c4 030f 	movt	r3, #16399	; 0x400f
  2a:	f04f 0220 	mov.w	r2, #32
  2e:	601a      	str	r2, [r3, #0]
  30:	f04f 0300 	mov.w	r3, #0
  34:	607b      	str	r3, [r7, #4]
  36:	e003      	b.n	40 <main+0x24>
  38:	687b      	ldr	r3, [r7, #4]
  3a:	f103 0301 	add.w	r3, r3, #1
  3e:	607b      	str	r3, [r7, #4]
  40:	687b      	ldr	r3, [r7, #4]
  42:	2bc7      	cmp	r3, #199	; 0xc7
  44:	d9f8      	bls.n	38 <main+0x1c>
  46:	f44f 43a8 	mov.w	r3, #21504	; 0x5400
  4a:	f2c4 0302 	movt	r3, #16386	; 0x4002
  4e:	f44f 42a8 	mov.w	r2, #21504	; 0x5400
  52:	f2c4 0202 	movt	r2, #16386	; 0x4002
  56:	6812      	ldr	r2, [r2, #0]
  58:	f042 0208 	orr.w	r2, r2, #8
  5c:	601a      	str	r2, [r3, #0]
  5e:	f245 531c 	movw	r3, #21788	; 0x551c
  62:	f2c4 0302 	movt	r3, #16386	; 0x4002
  66:	f245 521c 	movw	r2, #21788	; 0x551c
  6a:	f2c4 0202 	movt	r2, #16386	; 0x4002
  6e:	6812      	ldr	r2, [r2, #0]
  70:	f042 0208 	orr.w	r2, r2, #8
  74:	601a      	str	r2, [r3, #0]
  76:	f245 33fc 	movw	r3, #21500	; 0x53fc
  7a:	f2c4 0302 	movt	r3, #16386	; 0x4002
  7e:	f245 32fc 	movw	r2, #21500	; 0x53fc
  82:	f2c4 0202 	movt	r2, #16386	; 0x4002
  86:	6812      	ldr	r2, [r2, #0]
  88:	f042 0208 	orr.w	r2, r2, #8
  8c:	601a      	str	r2, [r3, #0]
  8e:	f04f 0300 	mov.w	r3, #0
  92:	607b      	str	r3, [r7, #4]
  94:	e003      	b.n	9e <main+0x82>
  96:	687b      	ldr	r3, [r7, #4]
  98:	f103 0301 	add.w	r3, r3, #1
  9c:	607b      	str	r3, [r7, #4]
  9e:	687a      	ldr	r2, [r7, #4]
  a0:	f640 533f 	movw	r3, #3391	; 0xd3f
  a4:	f2c0 0303 	movt	r3, #3
  a8:	429a      	cmp	r2, r3
  aa:	d9f4      	bls.n	96 <main+0x7a>
  ac:	f245 33fc 	movw	r3, #21500	; 0x53fc
  b0:	f2c4 0302 	movt	r3, #16386	; 0x4002
  b4:	f245 32fc 	movw	r2, #21500	; 0x53fc
  b8:	f2c4 0202 	movt	r2, #16386	; 0x4002
  bc:	6812      	ldr	r2, [r2, #0]
  be:	f022 0208 	bic.w	r2, r2, #8
  c2:	601a      	str	r2, [r3, #0]
  c4:	f04f 0300 	mov.w	r3, #0
  c8:	607b      	str	r3, [r7, #4]
  ca:	e003      	b.n	d4 <main+0xb8>
  cc:	687b      	ldr	r3, [r7, #4]
  ce:	f103 0301 	add.w	r3, r3, #1
  d2:	607b      	str	r3, [r7, #4]
  d4:	687a      	ldr	r2, [r7, #4]
  d6:	f640 533f 	movw	r3, #3391	; 0xd3f
  da:	f2c0 0303 	movt	r3, #3
  de:	429a      	cmp	r2, r3
  e0:	d9f4      	bls.n	cc <main+0xb0>
  e2:	e7c8      	b.n	76 <main+0x5a>

000000e4 <Default_Handler>:
  e4:	b580      	push	{r7, lr}
  e6:	af00      	add	r7, sp, #0
  e8:	f000 f802 	bl	f0 <Rest_Handler>
  ec:	bd80      	pop	{r7, pc}
  ee:	bf00      	nop

000000f0 <Rest_Handler>:
  f0:	b580      	push	{r7, lr}
  f2:	b086      	sub	sp, #24
  f4:	af00      	add	r7, sp, #0
  f6:	f240 0200 	movw	r2, #0
  fa:	f2c2 0200 	movt	r2, #8192	; 0x2000
  fe:	f240 0300 	movw	r3, #0
 102:	f2c2 0300 	movt	r3, #8192	; 0x2000
 106:	1ad3      	subs	r3, r2, r3
 108:	607b      	str	r3, [r7, #4]
 10a:	f240 13a0 	movw	r3, #416	; 0x1a0
 10e:	f2c0 0300 	movt	r3, #0
 112:	617b      	str	r3, [r7, #20]
 114:	f240 0300 	movw	r3, #0
 118:	f2c2 0300 	movt	r3, #8192	; 0x2000
 11c:	613b      	str	r3, [r7, #16]
 11e:	f04f 0300 	mov.w	r3, #0
 122:	60fb      	str	r3, [r7, #12]
 124:	e00f      	b.n	146 <Rest_Handler+0x56>
 126:	697b      	ldr	r3, [r7, #20]
 128:	781a      	ldrb	r2, [r3, #0]
 12a:	693b      	ldr	r3, [r7, #16]
 12c:	701a      	strb	r2, [r3, #0]
 12e:	693b      	ldr	r3, [r7, #16]
 130:	f103 0301 	add.w	r3, r3, #1
 134:	613b      	str	r3, [r7, #16]
 136:	697b      	ldr	r3, [r7, #20]
 138:	f103 0301 	add.w	r3, r3, #1
 13c:	617b      	str	r3, [r7, #20]
 13e:	68fb      	ldr	r3, [r7, #12]
 140:	f103 0301 	add.w	r3, r3, #1
 144:	60fb      	str	r3, [r7, #12]
 146:	68fa      	ldr	r2, [r7, #12]
 148:	687b      	ldr	r3, [r7, #4]
 14a:	429a      	cmp	r2, r3
 14c:	d3eb      	bcc.n	126 <Rest_Handler+0x36>
 14e:	f240 4200 	movw	r2, #1024	; 0x400
 152:	f2c2 0200 	movt	r2, #8192	; 0x2000
 156:	f240 0300 	movw	r3, #0
 15a:	f2c2 0300 	movt	r3, #8192	; 0x2000
 15e:	1ad3      	subs	r3, r2, r3
 160:	603b      	str	r3, [r7, #0]
 162:	f240 0300 	movw	r3, #0
 166:	f2c2 0300 	movt	r3, #8192	; 0x2000
 16a:	613b      	str	r3, [r7, #16]
 16c:	f04f 0300 	mov.w	r3, #0
 170:	60bb      	str	r3, [r7, #8]
 172:	e00b      	b.n	18c <Rest_Handler+0x9c>
 174:	693b      	ldr	r3, [r7, #16]
 176:	f04f 0200 	mov.w	r2, #0
 17a:	701a      	strb	r2, [r3, #0]
 17c:	693b      	ldr	r3, [r7, #16]
 17e:	f103 0301 	add.w	r3, r3, #1
 182:	613b      	str	r3, [r7, #16]
 184:	68bb      	ldr	r3, [r7, #8]
 186:	f103 0301 	add.w	r3, r3, #1
 18a:	60bb      	str	r3, [r7, #8]
 18c:	68ba      	ldr	r2, [r7, #8]
 18e:	683b      	ldr	r3, [r7, #0]
 190:	429a      	cmp	r2, r3
 192:	d3ef      	bcc.n	174 <Rest_Handler+0x84>
 194:	f7ff ff42 	bl	1c <main>
 198:	f107 0718 	add.w	r7, r7, #24
 19c:	46bd      	mov	sp, r7
 19e:	bd80      	pop	{r7, pc}
